target datalayout = "e-m:e-p270:32:32-p271:32:32-p272:64:64-i64:64-i128:128-f80:128-n8:16:32:64-S128"
target triple = "x86_64-pc-linux-gnu"

%struct.xcgroup_t = type { ptr, ptr, ptr, i32, i32, i32 }

@g_step_cgpath = internal global [5 x [4096 x i8]] zeroinitializer, align 16
@int_cg = internal global [5 x [9 x %struct.xcgroup_t]] zeroinitializer, align 16

; Function Attrs: nounwind uwtable
define dso_local i32 @cgroup_p_step_get_pids(ptr noundef %0, ptr noundef %1) #0 {
  %3 = alloca i32, align 4
  %4 = alloca ptr, align 8
  %5 = alloca ptr, align 8
  store ptr %0, ptr %4, align 8
  store ptr %1, ptr %5, align 8
  %6 = load i8, ptr @g_step_cgpath, align 16
  %7 = sext i8 %6 to i32
  %8 = icmp eq i32 %7, 0
  br i1 %8, label %9, label %10

9:                                                ; preds = %2
  store i32 -1, ptr %3, align 4
  br label %14

10:                                               ; preds = %2
  %11 = load ptr, ptr %4, align 8
  %12 = load ptr, ptr %5, align 8
  %13 = call i32 @common_cgroup_get_pids(ptr noundef getelementptr inbounds ([9 x %struct.xcgroup_t], ptr @int_cg, i64 0, i64 4), ptr noundef %11, ptr noundef %12)
  store i32 %13, ptr %3, align 4
  br label %14

14:                                               ; preds = %10, %9
  %15 = load i32, ptr %3, align 4
  ret i32 %15
}