; Function Attrs: nounwind uwtable
define dso_local i32 @cgroup_p_step_get_pids(ptr noundef %0, ptr noundef %1) local_unnamed_addr #0 {
  %3 = load i8, ptr @g_step_cgpath, align 16
  %4 = icmp eq i8 %3, 0
  br i1 %4, label %7, label %5

5:                                                ; preds = %2
  %6 = tail call i32 @common_cgroup_get_pids(ptr noundef nonnull getelementptr inbounds nuw (i8, ptr @int_cg, i64 160), ptr noundef %0, ptr noundef %1) #11
  br label %7

7:                                                ; preds = %2, %5
  %.0 = phi i32 [ %6, %5 ], [ -1, %2 ]
  ret i32 %.0
}